; ModuleID = 'source-C-CXX/32/659.c'
source_filename = "source-C-CXX/32/659.c"
target datalayout = "e-m:e-p270:32:32-p271:32:32-p272:64:64-i64:64-f80:128-n8:16:32:64-S128"
target triple = "x86_64-pc-linux-gnu"

@.str = private unnamed_addr constant [3 x i8] c"%d\00", align 1
@.str.1 = private unnamed_addr constant [3 x i8] c"%s\00", align 1

; Function Attrs: nofree nounwind sspstrong uwtable
define dso_local i32 @main() local_unnamed_addr #0 {
  %1 = alloca [256 x i8], align 16
  %2 = alloca i32, align 4
  %3 = alloca [256 x i8], align 16
  %4 = getelementptr inbounds [256 x i8], [256 x i8]* %1, i64 0, i64 0
  call void @llvm.lifetime.start.p0i8(i64 256, i8* nonnull %4) #6
  %5 = bitcast i32* %2 to i8*
  call void @llvm.lifetime.start.p0i8(i64 4, i8* nonnull %5) #6
  %6 = call i32 (i8*, ...) @__isoc99_scanf(i8* getelementptr inbounds ([3 x i8], [3 x i8]* @.str, i64 0, i64 0), i32* nonnull %2)
  %7 = getelementptr inbounds [256 x i8], [256 x i8]* %3, i64 0, i64 0
  %8 = load i32, i32* %2, align 4, !tbaa !5
  %9 = icmp sgt i32 %8, 0
  br i1 %9, label %10, label %30

10:                                               ; preds = %0, %25
  %11 = phi i32 [ %27, %25 ], [ 0, %0 ]
  call void @llvm.lifetime.start.p0i8(i64 256, i8* nonnull %7) #6
  call void @llvm.memset.p0i8.i64(i8* noundef nonnull align 16 dereferenceable(256) %7, i8 0, i64 256, i1 false)
  %12 = call i32 (i8*, ...) @__isoc99_scanf(i8* getelementptr inbounds ([3 x i8], [3 x i8]* @.str.1, i64 0, i64 0), i8* nonnull %4)
  br label %13

13:                                               ; preds = %19, %10
  %14 = phi i8* [ %4, %10 ], [ %24, %19 ]
  %15 = load i8, i8* %14, align 1, !tbaa !9
  switch i8 %15, label %18 [
    i8 0, label %25
    i8 65, label %19
    i8 84, label %16
    i8 71, label %17
  ]

16:                                               ; preds = %13
  br label %19

17:                                               ; preds = %13
  br label %19

18:                                               ; preds = %13
  br label %19

19:                                               ; preds = %13, %17, %18, %16
  %20 = phi i16 [ 67, %17 ], [ 71, %18 ], [ 65, %16 ], [ 84, %13 ]
  %21 = call i64 @strlen(i8* noundef nonnull %7)
  %22 = getelementptr [256 x i8], [256 x i8]* %3, i64 0, i64 %21
  %23 = bitcast i8* %22 to i16*
  store i16 %20, i16* %23, align 1
  %24 = getelementptr inbounds i8, i8* %14, i64 1
  br label %13, !llvm.loop !10

25:                                               ; preds = %13
  %26 = call i32 @puts(i8* nonnull %7)
  call void @llvm.lifetime.end.p0i8(i64 256, i8* nonnull %7) #6
  %27 = add nuw nsw i32 %11, 1
  %28 = load i32, i32* %2, align 4, !tbaa !5
  %29 = icmp slt i32 %27, %28
  br i1 %29, label %10, label %30, !llvm.loop !12

30:                                               ; preds = %25, %0
  call void @llvm.lifetime.end.p0i8(i64 4, i8* nonnull %5) #6
  call void @llvm.lifetime.end.p0i8(i64 256, i8* nonnull %4) #6
  ret i32 0
}

; Function Attrs: argmemonly mustprogress nofree nosync nounwind willreturn
declare void @llvm.lifetime.start.p0i8(i64 immarg, i8* nocapture) #1

; Function Attrs: nofree nounwind
declare noundef i32 @__isoc99_scanf(i8* nocapture noundef readonly, ...) local_unnamed_addr #2

; Function Attrs: argmemonly mustprogress nofree nounwind willreturn writeonly
declare void @llvm.memset.p0i8.i64(i8* nocapture writeonly, i8, i64, i1 immarg) #3

; Function Attrs: argmemonly mustprogress nofree nosync nounwind willreturn
declare void @llvm.lifetime.end.p0i8(i64 immarg, i8* nocapture) #1

; Function Attrs: nofree nounwind
declare noundef i32 @puts(i8* nocapture noundef readonly) local_unnamed_addr #4

; Function Attrs: argmemonly nofree nounwind readonly willreturn
declare i64 @strlen(i8* nocapture) local_unnamed_addr #5


!llvm.module.flags = !{!0, !1, !2, !3}
!llvm.ident = !{!4}

!0 = !{i32 1, !"wchar_size", i32 4}
!1 = !{i32 7, !"PIC Level", i32 2}
!2 = !{i32 7, !"PIE Level", i32 2}
!3 = !{i32 7, !"uwtable", i32 1}
!4 = !{!"clang version 13.0.0"}
!5 = !{!6, !6, i64 0}
!6 = !{!"int", !7, i64 0}
!7 = !{!"omnipotent char", !8, i64 0}
!8 = !{!"Simple C/C++ TBAA"}
!9 = !{!7, !7, i64 0}
!10 = distinct !{!10, !11}
!11 = !{!"llvm.loop.mustprogress"}
!12 = distinct !{!12, !11}
